target datalayout = "e-m:e-p270:32:32-p271:32:32-p272:64:64-i64:64-i128:128-f80:128-n8:16:32:64-S128"
target triple = "x86_64-pc-linux-gnu"

%struct.Gia_Obj_t_ = type <{ i64, i32 }>
%struct.Vec_Int_t_ = type { i32, i32, ptr }
%struct.Gia_Man_t_ = type { ptr, ptr, i32, i32, i32, i32, ptr, ptr, i32, i32, i32, ptr, ptr, %struct.Vec_Int_t_, %struct.Vec_Int_t_, i32, i32, i32, %struct.Vec_Int_t_, ptr, ptr, ptr, i32, i32, i32, i32, ptr, ptr, ptr, ptr, ptr, i32, i32, ptr, i32, ptr, ptr, ptr, ptr, ptr, ptr, ptr, ptr, ptr, ptr, ptr, ptr, ptr, ptr, ptr, ptr, ptr, ptr, %struct.Vec_Int_t_, %struct.Vec_Int_t_, ptr, ptr, ptr, ptr, ptr, ptr, ptr, ptr, ptr, ptr, ptr, ptr, ptr, ptr, ptr, ptr, ptr, ptr, ptr, ptr, ptr, i32, float, float, ptr, ptr, i32, ptr, ptr, ptr, ptr, ptr, ptr, ptr, ptr, ptr, ptr, ptr, ptr, ptr, ptr, ptr, i64, i64, ptr, ptr, i32, i32, i32, i32, i32, i32, i32, i32, i32, i32, i32, i32, ptr, ptr, ptr, ptr, ptr, ptr, ptr, ptr, i32, i32, i32, ptr, i32, i32, ptr, ptr, ptr, ptr, ptr, ptr, i32, i32, ptr, %struct.Vec_Int_t_, %struct.Vec_Int_t_, %struct.Vec_Int_t_, ptr, ptr, ptr }
%struct.Gia_Rpr_t_ = type { i32 }

@.str.2 = private unnamed_addr constant [2 x i8] c"\0A\00", align 1
@.str.26 = private unnamed_addr constant [8 x i8] c"Const0:\00", align 1
@.str.27 = private unnamed_addr constant [4 x i8] c" %d\00", align 1
@.str.28 = private unnamed_addr constant [4 x i8] c"%d:\00", align 1

; Function Attrs: nounwind uwtable
define internal i32 @Gia_ObjNext(ptr noundef %0, i32 noundef %1) #0 {
  %3 = alloca ptr, align 8
  %4 = alloca i32, align 4
  store ptr %0, ptr %3, align 8
  store i32 %1, ptr %4, align 4
  %5 = load ptr, ptr %3, align 8
  %6 = getelementptr inbounds %struct.Gia_Man_t_, ptr %5, i32 0, i32 28
  %7 = load ptr, ptr %6, align 8
  %8 = load i32, ptr %4, align 4
  %9 = sext i32 %8 to i64
  %10 = getelementptr inbounds i32, ptr %7, i64 %9
  %11 = load i32, ptr %10, align 4
  ret i32 %11
}

; Function Attrs: nounwind uwtable
define internal i32 @Gia_ObjIsHead(ptr noundef %0, i32 noundef %1) #0 {
  %3 = alloca ptr, align 8
  %4 = alloca i32, align 4
  store ptr %0, ptr %3, align 8
  store i32 %1, ptr %4, align 4
  %5 = load ptr, ptr %3, align 8
  %6 = load i32, ptr %4, align 4
  %7 = call i32 @Gia_ObjRepr(ptr noundef %5, i32 noundef %6)
  %8 = icmp eq i32 %7, 268435455
  br i1 %8, label %9, label %14

9:                                                ; preds = %2
  %10 = load ptr, ptr %3, align 8
  %11 = load i32, ptr %4, align 4
  %12 = call i32 @Gia_ObjNext(ptr noundef %10, i32 noundef %11)
  %13 = icmp sgt i32 %12, 0
  br label %14

14:                                               ; preds = %9, %2
  %15 = phi i1 [ false, %2 ], [ %13, %9 ]
  %16 = zext i1 %15 to i32
  ret i32 %16
}

; Function Attrs: nounwind uwtable
define internal i32 @Gia_ManObjNum(ptr noundef %0) #0 {
  %2 = alloca ptr, align 8
  store ptr %0, ptr %2, align 8
  %3 = load ptr, ptr %2, align 8
  %4 = getelementptr inbounds %struct.Gia_Man_t_, ptr %3, i32 0, i32 4
  %5 = load i32, ptr %4, align 8
  ret i32 %5
}

; Function Attrs: nounwind uwtable
define internal i32 @Gia_ObjRepr(ptr noundef %0, i32 noundef %1) #0 {
  %3 = alloca ptr, align 8
  %4 = alloca i32, align 4
  store ptr %0, ptr %3, align 8
  store i32 %1, ptr %4, align 4
  %5 = load ptr, ptr %3, align 8
  %6 = getelementptr inbounds %struct.Gia_Man_t_, ptr %5, i32 0, i32 27
  %7 = load ptr, ptr %6, align 8
  %8 = load i32, ptr %4, align 4
  %9 = sext i32 %8 to i64
  %10 = getelementptr inbounds %struct.Gia_Rpr_t_, ptr %7, i64 %9
  %11 = load i32, ptr %10, align 4
  %12 = and i32 %11, 268435455
  ret i32 %12
}

; Function Attrs: nounwind uwtable
define internal i32 @Gia_ObjIsAnd(ptr noundef %0) #0 {
  %2 = alloca ptr, align 8
  store ptr %0, ptr %2, align 8
  %3 = load ptr, ptr %2, align 8
  %4 = load i64, ptr %3, align 4
  %5 = lshr i64 %4, 31
  %6 = and i64 %5, 1
  %7 = trunc i64 %6 to i32
  %8 = icmp ne i32 %7, 0
  br i1 %8, label %15, label %9

9:                                                ; preds = %1
  %10 = load ptr, ptr %2, align 8
  %11 = load i64, ptr %10, align 4
  %12 = and i64 %11, 536870911
  %13 = trunc i64 %12 to i32
  %14 = icmp ne i32 %13, 536870911
  br label %15

15:                                               ; preds = %9, %1
  %16 = phi i1 [ false, %1 ], [ %14, %9 ]
  %17 = zext i1 %16 to i32
  ret i32 %17
}

; Function Attrs: nounwind uwtable
define internal ptr @Gia_ManObj(ptr noundef %0, i32 noundef %1) #0 {
  %3 = alloca ptr, align 8
  %4 = alloca i32, align 4
  store ptr %0, ptr %3, align 8
  store i32 %1, ptr %4, align 4
  %5 = load ptr, ptr %3, align 8
  %6 = getelementptr inbounds %struct.Gia_Man_t_, ptr %5, i32 0, i32 6
  %7 = load ptr, ptr %6, align 8
  %8 = load i32, ptr %4, align 4
  %9 = sext i32 %8 to i64
  %10 = getelementptr inbounds %struct.Gia_Obj_t_, ptr %7, i64 %9
  ret ptr %10
}

; Function Attrs: nounwind uwtable
define void @Gia_ManPrintEquivs(ptr noundef %0) #0 {
  %2 = alloca ptr, align 8
  %3 = alloca ptr, align 8
  %4 = alloca i32, align 4
  %5 = alloca i32, align 4
  store ptr %0, ptr %2, align 8
  %6 = call i32 (ptr, ...) @printf(ptr noundef @.str.26)
  store i32 0, ptr %4, align 4
  br label %7

7:                                                ; preds = %35, %1
  %8 = load i32, ptr %4, align 4
  %9 = load ptr, ptr %2, align 8
  %10 = getelementptr inbounds %struct.Gia_Man_t_, ptr %9, i32 0, i32 4
  %11 = load i32, ptr %10, align 8
  %12 = icmp slt i32 %8, %11
  br i1 %12, label %13, label %18

13:                                               ; preds = %7
  %14 = load ptr, ptr %2, align 8
  %15 = load i32, ptr %4, align 4
  %16 = call ptr @Gia_ManObj(ptr noundef %14, i32 noundef %15)
  store ptr %16, ptr %3, align 8
  %17 = icmp ne ptr %16, null
  br label %18

18:                                               ; preds = %13, %7
  %19 = phi i1 [ false, %7 ], [ %17, %13 ]
  br i1 %19, label %20, label %38

20:                                               ; preds = %18
  %21 = load ptr, ptr %3, align 8
  %22 = call i32 @Gia_ObjIsAnd(ptr noundef %21)
  %23 = icmp ne i32 %22, 0
  br i1 %23, label %25, label %24

24:                                               ; preds = %20
  br label %34

25:                                               ; preds = %20
  %26 = load ptr, ptr %2, align 8
  %27 = load i32, ptr %4, align 4
  %28 = call i32 @Gia_ObjRepr(ptr noundef %26, i32 noundef %27)
  %29 = icmp eq i32 %28, 0
  br i1 %29, label %30, label %33

30:                                               ; preds = %25
  %31 = load i32, ptr %4, align 4
  %32 = call i32 (ptr, ...) @printf(ptr noundef @.str.27, i32 noundef %31)
  br label %33

33:                                               ; preds = %30, %25
  br label %34

34:                                               ; preds = %33, %24
  br label %35

35:                                               ; preds = %34
  %36 = load i32, ptr %4, align 4
  %37 = add nsw i32 %36, 1
  store i32 %37, ptr %4, align 4
  br label %7, !llvm.loop !435

38:                                               ; preds = %18
  %39 = call i32 (ptr, ...) @printf(ptr noundef @.str.2)
  store i32 1, ptr %4, align 4
  br label %40

40:                                               ; preds = %70, %38
  %41 = load i32, ptr %4, align 4
  %42 = load ptr, ptr %2, align 8
  %43 = call i32 @Gia_ManObjNum(ptr noundef %42)
  %44 = icmp slt i32 %41, %43
  br i1 %44, label %45, label %73

45:                                               ; preds = %40
  %46 = load ptr, ptr %2, align 8
  %47 = load i32, ptr %4, align 4
  %48 = call i32 @Gia_ObjIsHead(ptr noundef %46, i32 noundef %47)
  %49 = icmp ne i32 %48, 0
  br i1 %49, label %51, label %50

50:                                               ; preds = %45
  br label %69

51:                                               ; preds = %45
  %52 = load i32, ptr %4, align 4
  %53 = call i32 (ptr, ...) @printf(ptr noundef @.str.28, i32 noundef %52)
  %54 = load ptr, ptr %2, align 8
  %55 = load i32, ptr %4, align 4
  %56 = call i32 @Gia_ObjNext(ptr noundef %54, i32 noundef %55)
  store i32 %56, ptr %5, align 4
  br label %57

57:                                               ; preds = %63, %51
  %58 = load i32, ptr %5, align 4
  %59 = icmp sgt i32 %58, 0
  br i1 %59, label %60, label %67

60:                                               ; preds = %57
  %61 = load i32, ptr %5, align 4
  %62 = call i32 (ptr, ...) @printf(ptr noundef @.str.27, i32 noundef %61)
  br label %63

63:                                               ; preds = %60
  %64 = load ptr, ptr %2, align 8
  %65 = load i32, ptr %5, align 4
  %66 = call i32 @Gia_ObjNext(ptr noundef %64, i32 noundef %65)
  store i32 %66, ptr %5, align 4
  br label %57, !llvm.loop !436

67:                                               ; preds = %57
  %68 = call i32 (ptr, ...) @printf(ptr noundef @.str.2)
  br label %69

69:                                               ; preds = %67, %50
  br label %70

70:                                               ; preds = %69
  %71 = load i32, ptr %4, align 4
  %72 = add nsw i32 %71, 1
  store i32 %72, ptr %4, align 4
  br label %40, !llvm.loop !437

73:                                               ; preds = %40
  ret void
}