; Function Attrs: nofree nounwind uwtable
define void @Gia_ManPrintEquivs(ptr noundef readonly captures(none) %0) local_unnamed_addr #4 {
  %2 = tail call i32 (ptr, ...) @printf(ptr noundef nonnull dereferenceable(1) @.str.26)
  %3 = getelementptr i8, ptr %0, i64 32
  %4 = getelementptr inbounds nuw i8, ptr %0, i64 24
  %5 = load i32, ptr %4, align 8
  %6 = icmp sgt i32 %5, 0
  br i1 %6, label %.lr.ph, label %.critedge

.lr.ph:                                           ; preds = %1
  %7 = getelementptr i8, ptr %0, i64 192
  br label %8

8:                                                ; preds = %.lr.ph, %23
  %9 = phi i32 [ %5, %.lr.ph ], [ %24, %23 ]
  %indvars.iv = phi i64 [ 0, %.lr.ph ], [ %indvars.iv.next, %23 ]
  %.val = load ptr, ptr %3, align 8
  %.not = icmp eq ptr %.val, null
  br i1 %.not, label %.critedge, label %10

10:                                               ; preds = %8
  %11 = getelementptr inbounds nuw %struct.Gia_Obj_t_, ptr %.val, i64 %indvars.iv
  %.val29 = load i64, ptr %11, align 4
  %12 = and i64 %.val29, 2147483648
  %.not.i = icmp ne i64 %12, 0
  %13 = and i64 %.val29, 536870911
  %14 = icmp eq i64 %13, 536870911
  %narrow.i.not = or i1 %.not.i, %14
  br i1 %narrow.i.not, label %23, label %15

15:                                               ; preds = %10
  %.val26 = load ptr, ptr %7, align 8
  %16 = getelementptr inbounds nuw %struct.Gia_Rpr_t_, ptr %.val26, i64 %indvars.iv
  %17 = load i32, ptr %16, align 4
  %18 = and i32 %17, 268435455
  %19 = icmp eq i32 %18, 0
  br i1 %19, label %20, label %23

20:                                               ; preds = %15
  %21 = trunc nuw nsw i64 %indvars.iv to i32
  %22 = tail call i32 (ptr, ...) @printf(ptr noundef nonnull dereferenceable(1) @.str.27, i32 noundef %21)
  %.pre = load i32, ptr %4, align 8
  br label %23

23:                                               ; preds = %10, %20, %15
  %24 = phi i32 [ %9, %10 ], [ %.pre, %20 ], [ %9, %15 ]
  %indvars.iv.next = add nuw nsw i64 %indvars.iv, 1
  %25 = sext i32 %24 to i64
  %26 = icmp slt i64 %indvars.iv.next, %25
  br i1 %26, label %8, label %.critedge, !llvm.loop !436

.critedge:                                        ; preds = %8, %23, %1
  %putchar = tail call i32 @putchar(i32 10)
  %.val2537 = load i32, ptr %4, align 8
  %27 = icmp sgt i32 %.val2537, 1
  br i1 %27, label %.lr.ph39, label %._crit_edge40

.lr.ph39:                                         ; preds = %.critedge
  %28 = getelementptr i8, ptr %0, i64 192
  %29 = getelementptr i8, ptr %0, i64 200
  br label %30

30:                                               ; preds = %.lr.ph39, %Gia_ObjIsHead.exit.thread
  %.val2545 = phi i32 [ %.val2537, %.lr.ph39 ], [ %.val25, %Gia_ObjIsHead.exit.thread ]
  %indvars.iv42 = phi i64 [ 1, %.lr.ph39 ], [ %indvars.iv.next43, %Gia_ObjIsHead.exit.thread ]
  %.val.i = load ptr, ptr %28, align 8
  %31 = getelementptr inbounds nuw %struct.Gia_Rpr_t_, ptr %.val.i, i64 %indvars.iv42
  %32 = load i32, ptr %31, align 4
  %33 = and i32 %32, 268435455
  %34 = icmp eq i32 %33, 268435455
  br i1 %34, label %Gia_ObjIsHead.exit, label %Gia_ObjIsHead.exit.thread

Gia_ObjIsHead.exit:                               ; preds = %30
  %.val3.i = load ptr, ptr %29, align 8
  %35 = getelementptr inbounds nuw i32, ptr %.val3.i, i64 %indvars.iv42
  %36 = load i32, ptr %35, align 4
  %37 = icmp slt i32 %36, 1
  br i1 %37, label %Gia_ObjIsHead.exit.thread, label %38

38:                                               ; preds = %Gia_ObjIsHead.exit
  %39 = trunc nuw nsw i64 %indvars.iv42 to i32
  %40 = tail call i32 (ptr, ...) @printf(ptr noundef nonnull dereferenceable(1) @.str.28, i32 noundef %39)
  %.val28 = load ptr, ptr %29, align 8
  %41 = getelementptr inbounds nuw i32, ptr %.val28, i64 %indvars.iv42
  %.034 = load i32, ptr %41, align 4
  %42 = icmp sgt i32 %.034, 0
  br i1 %42, label %.lr.ph36, label %._crit_edge

.lr.ph36:                                         ; preds = %38, %.lr.ph36
  %.035 = phi i32 [ %.0, %.lr.ph36 ], [ %.034, %38 ]
  %43 = tail call i32 (ptr, ...) @printf(ptr noundef nonnull dereferenceable(1) @.str.27, i32 noundef %.035)
  %.val27 = load ptr, ptr %29, align 8
  %44 = zext nneg i32 %.035 to i64
  %45 = getelementptr inbounds nuw i32, ptr %.val27, i64 %44
  %.0 = load i32, ptr %45, align 4
  %46 = icmp sgt i32 %.0, 0
  br i1 %46, label %.lr.ph36, label %._crit_edge, !llvm.loop !437

._crit_edge:                                      ; preds = %.lr.ph36, %38
  %putchar23 = tail call i32 @putchar(i32 10)
  %.val25.pre = load i32, ptr %4, align 8
  br label %Gia_ObjIsHead.exit.thread

Gia_ObjIsHead.exit.thread:                        ; preds = %30, %._crit_edge, %Gia_ObjIsHead.exit
  %.val25 = phi i32 [ %.val2545, %30 ], [ %.val25.pre, %._crit_edge ], [ %.val2545, %Gia_ObjIsHead.exit ]
  %indvars.iv.next43 = add nuw nsw i64 %indvars.iv42, 1
  %47 = sext i32 %.val25 to i64
  %48 = icmp slt i64 %indvars.iv.next43, %47
  br i1 %48, label %30, label %._crit_edge40, !llvm.loop !438

._crit_edge40:                                    ; preds = %Gia_ObjIsHead.exit.thread, %.critedge
  ret void
}